target datalayout = "e-m:e-p270:32:32-p271:32:32-p272:64:64-i64:64-i128:128-f80:128-n8:16:32:64-S128"
target triple = "x86_64-pc-linux-gnu"

%struct.quic_conn_id_st = type { i8, [20 x i8] }
%struct.ossl_qrx_st = type { ptr, ptr, ptr, i64, i64, i64, %struct.ossl_list_st_urxe, %struct.ossl_list_st_urxe, %struct.ossl_list_st_rxe, %struct.ossl_list_st_rxe, [3 x i64], %struct.ossl_qrl_enc_level_set_st, i64, i64, i64, ptr, ptr, ptr, ptr, i8, i8, ptr, ptr, ptr }
%struct.ossl_list_st_urxe = type { ptr, ptr, i64 }
%struct.ossl_list_st_rxe = type { ptr, ptr, i64 }
%struct.ossl_qrl_enc_level_set_st = type { [4 x %struct.ossl_qrl_enc_level_st] }
%struct.ossl_qrl_enc_level_st = type { %struct.quic_hdr_protector_st, ptr, [2 x ptr], ptr, ptr, i64, i64, i32, i32, i8, i8, [2 x [16 x i8]], [64 x i8] }
%struct.quic_hdr_protector_st = type { ptr, ptr, ptr, ptr, i32 }
%union.bio_addr_st = type { %struct.sockaddr_in6, [84 x i8] }
%struct.sockaddr_in6 = type { i16, i16, i32, %struct.in6_addr, i32 }
%struct.in6_addr = type { %union.anon }
%union.anon = type { [4 x i32] }
%struct.OSSL_TIME = type { i64 }
%struct.rxe_st = type { %struct.ossl_qrx_pkt_st, %struct.anon.0, i64, i64, i64, %struct.quic_pkt_hdr_st, i64, %union.bio_addr_st, %union.bio_addr_st, %struct.OSSL_TIME, i64, i64, i64 }
%struct.ossl_qrx_pkt_st = type { ptr, ptr, ptr, i64, i64, %struct.OSSL_TIME, ptr, i64, i64 }
%struct.anon.0 = type { ptr, ptr }
%struct.quic_pkt_hdr_st = type { i32, i32, %struct.quic_conn_id_st, %struct.quic_conn_id_st, [4 x i8], ptr, i64, i64, ptr }

; Function Attrs: inlinehint nounwind uwtable
define internal void @ossl_list_rxe_insert_tail(ptr noundef %0, ptr noundef %1) #3 {
  %3 = alloca ptr, align 8
  %4 = alloca ptr, align 8
  store ptr %0, ptr %3, align 8, !tbaa !40
  store ptr %1, ptr %4, align 8, !tbaa !42
  %5 = load ptr, ptr %3, align 8, !tbaa !40
  %6 = getelementptr inbounds nuw %struct.ossl_list_st_rxe, ptr %5, i32 0, i32 1
  %7 = load ptr, ptr %6, align 8, !tbaa !115
  %8 = icmp ne ptr %7, null
  br i1 %8, label %9, label %16

9:                                                ; preds = %2
  %10 = load ptr, ptr %4, align 8, !tbaa !42
  %11 = load ptr, ptr %3, align 8, !tbaa !40
  %12 = getelementptr inbounds nuw %struct.ossl_list_st_rxe, ptr %11, i32 0, i32 1
  %13 = load ptr, ptr %12, align 8, !tbaa !115
  %14 = getelementptr inbounds nuw %struct.rxe_st, ptr %13, i32 0, i32 1
  %15 = getelementptr inbounds nuw %struct.anon.0, ptr %14, i32 0, i32 0
  store ptr %10, ptr %15, align 8, !tbaa !114
  br label %16

16:                                               ; preds = %9, %2
  %17 = load ptr, ptr %3, align 8, !tbaa !40
  %18 = getelementptr inbounds nuw %struct.ossl_list_st_rxe, ptr %17, i32 0, i32 1
  %19 = load ptr, ptr %18, align 8, !tbaa !115
  %20 = load ptr, ptr %4, align 8, !tbaa !42
  %21 = getelementptr inbounds nuw %struct.rxe_st, ptr %20, i32 0, i32 1
  %22 = getelementptr inbounds nuw %struct.anon.0, ptr %21, i32 0, i32 1
  store ptr %19, ptr %22, align 8, !tbaa !116
  %23 = load ptr, ptr %4, align 8, !tbaa !42
  %24 = getelementptr inbounds nuw %struct.rxe_st, ptr %23, i32 0, i32 1
  %25 = getelementptr inbounds nuw %struct.anon.0, ptr %24, i32 0, i32 0
  store ptr null, ptr %25, align 8, !tbaa !114
  %26 = load ptr, ptr %4, align 8, !tbaa !42
  %27 = load ptr, ptr %3, align 8, !tbaa !40
  %28 = getelementptr inbounds nuw %struct.ossl_list_st_rxe, ptr %27, i32 0, i32 1
  store ptr %26, ptr %28, align 8, !tbaa !115
  %29 = load ptr, ptr %3, align 8, !tbaa !40
  %30 = getelementptr inbounds nuw %struct.ossl_list_st_rxe, ptr %29, i32 0, i32 0
  %31 = load ptr, ptr %30, align 8, !tbaa !113
  %32 = icmp eq ptr %31, null
  br i1 %32, label %33, label %37

33:                                               ; preds = %16
  %34 = load ptr, ptr %4, align 8, !tbaa !42
  %35 = load ptr, ptr %3, align 8, !tbaa !40
  %36 = getelementptr inbounds nuw %struct.ossl_list_st_rxe, ptr %35, i32 0, i32 0
  store ptr %34, ptr %36, align 8, !tbaa !113
  br label %37

37:                                               ; preds = %33, %16
  %38 = load ptr, ptr %3, align 8, !tbaa !40
  %39 = getelementptr inbounds nuw %struct.ossl_list_st_rxe, ptr %38, i32 0, i32 2
  %40 = load i64, ptr %39, align 8, !tbaa !67
  %41 = add i64 %40, 1
  store i64 %41, ptr %39, align 8, !tbaa !67
  ret void
}

; Function Attrs: nounwind uwtable
define internal void @qrx_recycle_rxe(ptr noundef %0, ptr noundef %1) #0 {
  %3 = alloca ptr, align 8
  %4 = alloca ptr, align 8
  store ptr %0, ptr %3, align 8, !tbaa !15
  store ptr %1, ptr %4, align 8, !tbaa !42
  %5 = load ptr, ptr %4, align 8, !tbaa !42
  %6 = getelementptr inbounds nuw %struct.rxe_st, ptr %5, i32 0, i32 0
  %7 = getelementptr inbounds nuw %struct.ossl_qrx_pkt_st, ptr %6, i32 0, i32 0
  store ptr null, ptr %7, align 8, !tbaa !78
  %8 = load ptr, ptr %4, align 8, !tbaa !42
  %9 = getelementptr inbounds nuw %struct.rxe_st, ptr %8, i32 0, i32 0
  %10 = getelementptr inbounds nuw %struct.ossl_qrx_pkt_st, ptr %9, i32 0, i32 1
  store ptr null, ptr %10, align 8, !tbaa !84
  %11 = load ptr, ptr %4, align 8, !tbaa !42
  %12 = getelementptr inbounds nuw %struct.rxe_st, ptr %11, i32 0, i32 0
  %13 = getelementptr inbounds nuw %struct.ossl_qrx_pkt_st, ptr %12, i32 0, i32 2
  store ptr null, ptr %13, align 8, !tbaa !85
  %14 = load ptr, ptr %3, align 8, !tbaa !15
  %15 = getelementptr inbounds nuw %struct.ossl_qrx_st, ptr %14, i32 0, i32 8
  %16 = load ptr, ptr %4, align 8, !tbaa !42
  call void @ossl_list_rxe_insert_tail(ptr noundef %15, ptr noundef %16)
  ret void
}

; Function Attrs: nounwind uwtable
define void @ossl_qrx_pkt_release(ptr noundef %0) #0 {
  %2 = alloca ptr, align 8
  %3 = alloca ptr, align 8
  %4 = alloca i32, align 4
  store ptr %0, ptr %2, align 8, !tbaa !91
  call void @llvm.lifetime.start.p0(i64 8, ptr %3) #8
  %5 = load ptr, ptr %2, align 8, !tbaa !91
  %6 = icmp eq ptr %5, null
  br i1 %6, label %7, label %8

7:                                                ; preds = %1
  store i32 1, ptr %4, align 4
  br label %21

8:                                                ; preds = %1
  %9 = load ptr, ptr %2, align 8, !tbaa !91
  store ptr %9, ptr %3, align 8, !tbaa !42
  %10 = load ptr, ptr %3, align 8, !tbaa !42
  %11 = getelementptr inbounds nuw %struct.rxe_st, ptr %10, i32 0, i32 4
  %12 = load i64, ptr %11, align 8, !tbaa !70
  %13 = add i64 %12, -1
  store i64 %13, ptr %11, align 8, !tbaa !70
  %14 = icmp eq i64 %13, 0
  br i1 %14, label %15, label %20

15:                                               ; preds = %8
  %16 = load ptr, ptr %2, align 8, !tbaa !91
  %17 = getelementptr inbounds nuw %struct.ossl_qrx_pkt_st, ptr %16, i32 0, i32 6
  %18 = load ptr, ptr %17, align 8, !tbaa !94
  %19 = load ptr, ptr %3, align 8, !tbaa !42
  call void @qrx_recycle_rxe(ptr noundef %18, ptr noundef %19)
  br label %20

20:                                               ; preds = %15, %8
  store i32 0, ptr %4, align 4
  br label %21

21:                                               ; preds = %20, %7
  call void @llvm.lifetime.end.p0(i64 8, ptr %3) #8
  %22 = load i32, ptr %4, align 4
  switch i32 %22, label %24 [
    i32 0, label %23
    i32 1, label %23
  ]

23:                                               ; preds = %21, %21
  ret void

24:                                               ; preds = %21
  unreachable
}