; Function Attrs: mustprogress nofree norecurse nosync nounwind willreturn memory(readwrite, inaccessiblemem: none) uwtable
define void @ossl_qrx_pkt_release(ptr noundef %0) local_unnamed_addr #5 {
  %2 = icmp eq ptr %0, null
  br i1 %2, label %25, label %3

3:                                                ; preds = %1
  %4 = getelementptr inbounds nuw i8, ptr %0, i64 104
  %5 = load i64, ptr %4, align 8, !tbaa !71
  %6 = add i64 %5, -1
  store i64 %6, ptr %4, align 8, !tbaa !71
  %7 = icmp eq i64 %6, 0
  br i1 %7, label %8, label %25

8:                                                ; preds = %3
  %9 = getelementptr inbounds nuw i8, ptr %0, i64 48
  %10 = load ptr, ptr %9, align 8, !tbaa !118
  %11 = getelementptr inbounds nuw i8, ptr %10, i64 96
  %12 = getelementptr inbounds nuw i8, ptr %10, i64 104
  tail call void @llvm.memset.p0.i64(ptr noundef nonnull align 8 dereferenceable(24) %0, i8 0, i64 24, i1 false)
  %13 = load ptr, ptr %12, align 8, !tbaa !43
  %.not.i.i = icmp eq ptr %13, null
  br i1 %.not.i.i, label %16, label %14

14:                                               ; preds = %8
  %15 = getelementptr inbounds nuw i8, ptr %13, i64 72
  store ptr %0, ptr %15, align 8, !tbaa !32
  br label %16

16:                                               ; preds = %14, %8
  %17 = getelementptr inbounds nuw i8, ptr %0, i64 72
  %18 = getelementptr inbounds nuw i8, ptr %0, i64 80
  store ptr %13, ptr %18, align 8, !tbaa !44
  store ptr null, ptr %17, align 8, !tbaa !32
  store ptr %0, ptr %12, align 8, !tbaa !43
  %19 = load ptr, ptr %11, align 8, !tbaa !31
  %20 = icmp eq ptr %19, null
  br i1 %20, label %21, label %qrx_recycle_rxe.exit

21:                                               ; preds = %16
  store ptr %0, ptr %11, align 8, !tbaa !31
  br label %qrx_recycle_rxe.exit

qrx_recycle_rxe.exit:                             ; preds = %16, %21
  %22 = getelementptr inbounds nuw i8, ptr %10, i64 112
  %23 = load i64, ptr %22, align 8, !tbaa !45
  %24 = add i64 %23, 1
  store i64 %24, ptr %22, align 8, !tbaa !45
  br label %25

25:                                               ; preds = %3, %qrx_recycle_rxe.exit, %1
  ret void
}